; Function Attrs: mustprogress uwtable
define internal noundef ptr @"_ZNSt17_Function_handlerIFPN7rocksdb3EnvERKNSt7__cxx1112basic_stringIcSt11char_traitsIcESaIcEEEPSt10unique_ptrIS1_St14default_deleteIS1_EEPS8_EZNS0_12_GLOBAL__N_119RegisterBuiltinEnvsERNS0_13ObjectLibraryESA_E3$_0E9_M_invokeERKSt9_Any_dataSA_OSF_OSG_"(ptr nonnull readnone align 8 captures(none) %0, ptr nonnull readnone align 8 captures(none) %1, ptr noundef nonnull readonly align 8 captures(none) dereferenceable(8) %2, ptr nonnull readnone align 8 captures(none) %3) #4 align 2 personality ptr @__gxx_personality_v0 {
  %.val = load ptr, ptr %2, align 8, !tbaa !171
  %5 = tail call noundef ptr @_ZN7rocksdb3Env7DefaultEv()
  %6 = tail call noundef ptr @_ZN7rocksdb7MockEnv6CreateEPNS_3EnvE(ptr noundef %5)
  %7 = load ptr, ptr %.val, align 8, !tbaa !135
  store ptr %6, ptr %.val, align 8, !tbaa !135
  %.not.i.i.i.i.i = icmp eq ptr %7, null
  br i1 %.not.i.i.i.i.i, label %"_ZSt10__invoke_rIPN7rocksdb3EnvERZNS0_12_GLOBAL__N_119RegisterBuiltinEnvsERNS0_13ObjectLibraryERKNSt7__cxx1112basic_stringIcSt11char_traitsIcESaIcEEEE3$_0JSD_PSt10unique_ptrIS1_St14default_deleteIS1_EEPSB_EENSt9enable_ifIX16is_invocable_r_vIT_T0_DpT1_EESN_E4typeEOSO_DpOSP_.exit", label %_ZNKSt14default_deleteIN7rocksdb3EnvEEclEPS1_.exit.i.i.i.i.i

_ZNKSt14default_deleteIN7rocksdb3EnvEEclEPS1_.exit.i.i.i.i.i: ; preds = %4
  %8 = load ptr, ptr %7, align 8, !tbaa !18
  %9 = getelementptr inbounds nuw i8, ptr %8, i64 8
  %10 = load ptr, ptr %9, align 8
  tail call void %10(ptr noundef nonnull align 8 dereferenceable(72) %7) #37
  %.pre.i.i.i = load ptr, ptr %.val, align 8, !tbaa !135
  br label %"_ZSt10__invoke_rIPN7rocksdb3EnvERZNS0_12_GLOBAL__N_119RegisterBuiltinEnvsERNS0_13ObjectLibraryERKNSt7__cxx1112basic_stringIcSt11char_traitsIcESaIcEEEE3$_0JSD_PSt10unique_ptrIS1_St14default_deleteIS1_EEPSB_EENSt9enable_ifIX16is_invocable_r_vIT_T0_DpT1_EESN_E4typeEOSO_DpOSP_.exit"

"_ZSt10__invoke_rIPN7rocksdb3EnvERZNS0_12_GLOBAL__N_119RegisterBuiltinEnvsERNS0_13ObjectLibraryERKNSt7__cxx1112basic_stringIcSt11char_traitsIcESaIcEEEE3$_0JSD_PSt10unique_ptrIS1_St14default_deleteIS1_EEPSB_EENSt9enable_ifIX16is_invocable_r_vIT_T0_DpT1_EESN_E4typeEOSO_DpOSP_.exit": ; preds = %4, %_ZNKSt14default_deleteIN7rocksdb3EnvEEclEPS1_.exit.i.i.i.i.i
  %11 = phi ptr [ %6, %4 ], [ %.pre.i.i.i, %_ZNKSt14default_deleteIN7rocksdb3EnvEEclEPS1_.exit.i.i.i.i.i ]
  ret ptr %11
}